(dp0
S'test1'
p1
(dp2
S'times8'
p3
(lp4
sS'times9'
p5
(lp6
sS'times0'
p7
(lp8
F4.996598958969116
aF2.074644088745117
aF2.2234020233154297
aF2.224031925201416
aF2.103240966796875
aF2.6839659214019775
aF2.382720947265625
aF2.533217191696167
aF2.8281478881835938
aF2.97147798538208
aF3.8831748962402344
aF2.6534759998321533
aF2.5136709213256836
aF2.355968952178955
asS'times1'
p9
(lp10
F2.6601829528808594
aF2.2116801738739014
aF2.526970148086548
aF2.3326539993286133
aF2.4181079864501953
aF2.3880860805511475
aF5.2591729164123535
aF4.412858963012695
aF2.608211040496826
aF2.254117012023926
aF4.041270971298218
aF2.3619298934936523
asS'times2'
p11
(lp12
F3.157564163208008
aF2.4130699634552
aF2.837161064147949
aF2.8501851558685303
aF2.5283679962158203
aF3.013953924179077
aF4.724193811416626
aF3.130218982696533
aF3.7349870204925537
aF2.708315134048462
asS'times3'
p13
(lp14
F2.697845935821533
aF2.374462127685547
aF4.76783299446106
asS'times4'
p15
(lp16
sS'times5'
p17
(lp18
sS'times6'
p19
(lp20
sS'times7'
p21
(lp22
sS'logins'
p23
I1
sS'successes9'
p24
I0
sS'successes8'
p25
I0
sS'successes1'
p26
I12
sS'successes0'
p27
I14
sS'successes3'
p28
I3
sS'successes2'
p29
I10
sS'successes5'
p30
I0
sS'successes4'
p31
I0
sS'successes7'
p32
I0
sS'successes6'
p33
I0
sS'level'
p34
I3
sS'attempts7'
p35
I0
sS'attempts6'
p36
I0
sS'attempts5'
p37
I0
sS'attempts4'
p38
I0
sS'attempts3'
p39
I3
sS'attempts2'
p40
I10
sS'attempts1'
p41
I12
sS'attempts0'
p42
I15
sS'attempts9'
p43
I0
sS'attempts8'
p44
I0
ssS'Stover'
p45
(dp46
S'times8'
p47
(lp48
F14.754400968551636
aF3.855228900909424
aF11.599720001220703
aF10.137470006942749
aF2.9874069690704346
aF2.829190969467163
aF3.1882848739624023
aF3.034395933151245
aF2.8135790824890137
aF4.054386138916016
aF2.798678159713745
aF2.8123698234558105
aF4.051666021347046
aF2.6369612216949463
aF2.994443893432617
aF3.5548319816589355
aF4.0426130294799805
aF2.8224689960479736
aF2.918921947479248
aF5.789512872695923
aF2.9250779151916504
aF3.140087127685547
aF2.7421669960021973
aF5.090426921844482
aF2.8922441005706787
aF2.720731019973755
aF3.7269809246063232
asS'times9'
p49
(lp50
F2.817488193511963
aF2.7375681400299072
aF2.783811092376709
aF4.027577877044678
aF2.672232151031494
aF2.792513132095337
aF2.616107940673828
aF2.9453139305114746
aF2.634788990020752
aF2.725619077682495
aF2.9256298542022705
aF2.6953699588775635
asS'times0'
p51
(lp52
F4.049546003341675
aF5.347179889678955
aF3.926203966140747
aF2.632007122039795
aF2.4133810997009277
aF3.937803030014038
aF2.5539190769195557
aF3.7937519550323486
aF2.713653087615967
aF2.562937021255493
aF15.481115102767944
aF2.703266143798828
aF2.559800863265991
aF2.722670078277588
aF4.038472890853882
aF2.4107959270477295
aF2.73409104347229
aF6.224298000335693
aF4.596775770187378
aF2.8909049034118652
aF2.755300998687744
aF3.2501540184020996
aF4.384330987930298
aF2.7834041118621826
aF4.075043201446533
aF2.69176983833313
aF2.6777279376983643
aF2.9570040702819824
aF2.783747911453247
aF2.787444829940796
aF2.5772321224212646
aF4.879794120788574
aF2.870495080947876
aF6.175390005111694
aF3.1414380073547363
aF3.6057589054107666
aF3.146235942840576
aF2.8548569679260254
aF6.277472019195557
aF2.611050844192505
aF2.673794984817505
aF2.4133222103118896
aF2.9214141368865967
aF2.6147289276123047
aF3.882883071899414
aF2.7645058631896973
aF2.756801128387451
aF3.145098924636841
aF2.7865331172943115
aF2.8251070976257324
aF2.8190219402313232
aF2.651639938354492
aF3.0164589881896973
aF2.462557077407837
aF2.7184648513793945
aF2.532670021057129
aF2.4673068523406982
aF2.932317018508911
aF2.7732341289520264
aF2.978795051574707
aF2.6306610107421875
aF2.5520291328430176
aF2.6106607913970947
aF2.6295089721679688
aF2.44852614402771
aF2.9319870471954346
aF2.622533082962036
aF2.6357409954071045
aF2.624037027359009
aF2.966315984725952
asS'times1'
p53
(lp54
F2.4544119834899902
aF5.781531095504761
aF28.59639596939087
aF2.575597047805786
aF2.4184281826019287
aF2.25573992729187
aF2.7040960788726807
aF2.390099048614502
aF2.4265098571777344
aF2.5654590129852295
aF2.69991397857666
aF2.7101240158081055
aF2.58349609375
aF2.4198029041290283
aF3.023131847381592
aF2.720679998397827
aF2.753100872039795
aF3.529595136642456
aF2.590749979019165
aF2.9132840633392334
aF6.2599639892578125
aF2.6049342155456543
aF3.056617021560669
aF2.8972091674804688
aF5.740387916564941
aF3.58020281791687
aF3.0964620113372803
aF2.795177936553955
aF2.676126003265381
aF2.4856162071228027
aF2.7473058700561523
aF2.6654231548309326
aF2.479612112045288
aF2.7414140701293945
aF2.6898608207702637
aF7.567309856414795
aF3.004272937774658
aF2.6541900634765625
aF2.7448651790618896
aF2.841978073120117
aF2.986090898513794
aF2.6710917949676514
aF2.670764923095703
aF10.07080602645874
aF2.5927700996398926
aF2.662706136703491
aF2.744799852371216
aF3.6876602172851562
aF2.6238009929656982
aF2.60733699798584
aF2.5210440158843994
aF2.873537063598633
aF2.7156779766082764
aF2.684720993041992
aF2.6873538494110107
aF2.4938199520111084
aF2.5063979625701904
aF2.6367361545562744
aF2.6571149826049805
aF2.6355271339416504
aF2.4928219318389893
aF2.6519970893859863
aF2.82572603225708
aF2.7924180030822754
aF2.4807398319244385
aF2.6945159435272217
aF2.658005952835083
aF2.586107015609741
aF2.651102066040039
aF2.4553751945495605
aF2.7744221687316895
aF2.647296190261841
aF2.4772768020629883
aF2.688443899154663
aF2.7129619121551514
aF2.876612901687622
asS'times2'
p55
(lp56
F3.0269150733947754
aF2.94541597366333
aF2.5758450031280518
aF4.114716053009033
aF2.491641044616699
aF2.72428297996521
aF2.558587074279785
aF4.120792865753174
aF2.7523059844970703
aF5.6065099239349365
aF2.8870439529418945
aF10.669389009475708
aF2.744128942489624
aF2.598594903945923
aF2.4601619243621826
aF5.095928907394409
aF2.6126668453216553
aF2.82820987701416
aF2.632606029510498
aF3.906256914138794
aF3.316732168197632
aF2.7931408882141113
aF2.849184989929199
aF2.627129077911377
aF4.185629844665527
aF2.764117956161499
aF4.834076881408691
aF3.017367124557495
aF3.1381499767303467
aF6.651358127593994
aF4.725841999053955
aF3.159912109375
aF3.1270358562469482
aF3.2282660007476807
aF5.851202011108398
aF3.5077459812164307
aF9.274718046188354
aF2.453922986984253
aF9.218494892120361
aF2.600832939147949
aF2.4429430961608887
aF8.951236963272095
aF2.8981380462646484
aF3.356135845184326
aF2.9023470878601074
aF2.65877103805542
aF2.5587658882141113
aF2.482246160507202
aF2.4891200065612793
aF2.4864330291748047
aF3.15283203125
aF3.053225040435791
aF4.946378946304321
aF2.824573040008545
aF4.354898929595947
aF2.5989348888397217
aF2.791123151779175
aF6.128467798233032
aF2.494807004928589
aF3.0330820083618164
aF2.687453031539917
aF4.117425918579102
aF3.016655206680298
asS'times3'
p57
(lp58
F2.9090921878814697
aF2.7431070804595947
aF2.5652542114257812
aF3.040593147277832
aF2.5827279090881348
aF2.7279651165008545
aF2.573369026184082
aF2.578407049179077
aF3.076464891433716
aF4.885219097137451
aF4.718026161193848
aF3.122399091720581
aF15.511215925216675
aF4.306296110153198
aF2.632305145263672
aF2.66743803024292
aF5.070052862167358
aF2.643022060394287
aF3.1285359859466553
aF2.746556043624878
aF2.9781389236450195
aF2.8453681468963623
aF2.801701068878174
aF2.6788628101348877
aF2.8373420238494873
aF4.9282190799713135
aF3.444852113723755
aF2.66646409034729
aF2.8611721992492676
aF2.5309300422668457
aF2.983983039855957
aF2.731135845184326
aF2.443903923034668
aF2.4438469409942627
aF4.459204912185669
aF3.0597639083862305
aF2.6073949337005615
aF2.761596918106079
aF2.7585930824279785
aF2.7899560928344727
aF4.338186979293823
aF3.1027729511260986
aF3.824350118637085
aF3.184377908706665
aF3.8391470909118652
aF2.9004950523376465
aF3.300791025161743
aF2.918581962585449
aF2.6686959266662598
aF4.42510986328125
aF2.665735960006714
aF3.36211895942688
aF3.120877981185913
aF2.9423420429229736
aF4.7182230949401855
aF2.655208110809326
aF2.6334400177001953
aF2.799795150756836
aF2.66566801071167
aF4.533082008361816
aF2.562725067138672
aF2.648324966430664
aF2.983361005783081
aF2.679405927658081
aF2.6559231281280518
aF3.3604907989501953
aF3.3915860652923584
asS'times4'
p59
(lp60
F2.4425621032714844
aF2.4197170734405518
aF3.7180819511413574
aF2.6077330112457275
aF2.7660751342773438
aF3.9681601524353027
aF3.4760079383850098
aF2.923722982406616
aF2.489163875579834
aF2.6547250747680664
aF2.66664981842041
aF6.889046907424927
aF3.154428005218506
aF2.8443100452423096
aF2.6674349308013916
aF2.6719768047332764
aF2.9886021614074707
aF4.226970195770264
aF2.836789846420288
aF2.9014089107513428
aF2.528916835784912
aF2.815912961959839
aF2.443833827972412
aF3.072643995285034
aF2.6497340202331543
aF3.071305990219116
aF2.448582887649536
aF2.441598892211914
aF4.089823007583618
aF2.4681079387664795
aF2.6144790649414062
aF3.0145180225372314
aF2.786607027053833
aF2.5239980220794678
aF2.849094867706299
aF2.907503128051758
aF2.857064962387085
aF2.6948180198669434
aF2.5031380653381348
aF2.536961078643799
aF2.497957944869995
aF2.492126941680908
aF2.999337911605835
aF2.651064872741699
aF2.676133871078491
aF2.9595909118652344
aF2.643834114074707
aF2.573248863220215
aF2.4780678749084473
aF2.498677968978882
aF2.5318901538848877
aF3.1847641468048096
aF2.9312589168548584
aF2.6953320503234863
asS'times5'
p61
(lp62
F2.550497055053711
aF2.4785280227661133
aF2.6503829956054688
aF2.5653319358825684
aF2.523236036300659
aF2.4968268871307373
aF2.513477087020874
aF2.5770881175994873
aF2.37019419670105
aF4.008543968200684
aF2.8501038551330566
aF2.702847957611084
aF2.556692123413086
aF2.5474228858947754
aF2.7019009590148926
aF3.082916021347046
aF2.7923128604888916
aF4.1751158237457275
aF4.2135169506073
aF2.658665895462036
aF3.003654956817627
aF2.8613839149475098
aF2.5962111949920654
aF2.51589298248291
aF2.567652940750122
aF2.5520570278167725
aF2.5372629165649414
aF2.4445860385894775
aF2.6038711071014404
aF3.854027032852173
aF2.616486072540283
aF2.6559698581695557
aF2.6288411617279053
aF2.6240270137786865
aF2.839092969894409
aF2.5092921257019043
aF2.787864923477173
aF2.7859230041503906
aF2.6359450817108154
aF2.4827699661254883
aF2.5338499546051025
aF2.920102834701538
aF3.041555166244507
aF2.9473960399627686
aF2.493018865585327
aF2.507375955581665
aF2.650484085083008
aF2.6952500343322754
aF2.713538885116577
aF2.535522937774658
aF2.662889003753662
aF2.5080671310424805
aF2.6578049659729004
aF2.4831759929656982
aF2.53224515914917
aF2.6861820220947266
aF2.345571994781494
aF2.9515299797058105
aF2.643064022064209
aF2.64554500579834
asS'times6'
p63
(lp64
F3.435967206954956
aF4.883770227432251
aF5.016089916229248
aF4.105901002883911
aF2.799346923828125
aF2.8504321575164795
aF3.1269431114196777
aF2.9597320556640625
aF2.967024803161621
aF5.377156019210815
aF2.7751219272613525
aF4.770736932754517
aF3.128653049468994
aF2.7893970012664795
aF4.905658006668091
aF3.114197015762329
aF2.66668701171875
aF5.632684946060181
aF4.775724172592163
aF3.0898618698120117
aF3.831043004989624
aF4.113999843597412
aF17.080657958984375
aF4.0273048877716064
aF3.114690065383911
aF31.318408012390137
aF5.3853840827941895
aF2.6740450859069824
aF2.7537128925323486
aF3.3846609592437744
aF7.63506007194519
aF5.601541042327881
aF3.539443016052246
aF8.281240940093994
aF12.481670141220093
aF2.8466310501098633
aF2.6825079917907715
aF2.994971990585327
aF2.672157049179077
aF2.6578571796417236
aF7.26683783531189
aF2.8377490043640137
aF3.014400005340576
aF2.6567001342773438
aF2.630284070968628
aF4.693594932556152
aF5.015074014663696
aF11.028596878051758
aF4.185537099838257
aF2.6424858570098877
aF5.309602975845337
aF3.211158037185669
asS'times7'
p65
(lp66
F7.463922023773193
aF2.6736860275268555
aF5.799422979354858
aF6.003856897354126
aF2.9653799533843994
aF2.537973165512085
aF2.5547990798950195
aF5.38443398475647
aF1.6822869777679443
aF3.9887328147888184
aF2.74672794342041
aF2.6497998237609863
aF4.44326114654541
aF4.882623195648193
aF3.1518659591674805
aF2.7661890983581543
aF2.6805810928344727
aF2.8488831520080566
aF4.227102041244507
aF2.638392925262451
aF2.6383230686187744
aF2.484982967376709
aF2.8578529357910156
aF2.633002996444702
aF2.8098349571228027
aF3.979671001434326
aF3.2834010124206543
aF2.8771190643310547
asS'logins'
p67
I7
sS'successes9'
p68
I12
sS'successes8'
p69
I27
sS'successes1'
p70
I76
sS'successes0'
p71
I70
sS'successes3'
p72
I67
sS'successes2'
p73
I63
sS'successes5'
p74
I60
sS'successes4'
p75
I54
sS'successes7'
p76
I28
sS'successes6'
p77
I52
sS'level'
p78
I10
sS'attempts7'
p79
I28
sS'attempts6'
p80
I52
sS'attempts5'
p81
I61
sS'attempts4'
p82
I55
sS'attempts3'
p83
I68
sS'attempts2'
p84
I63
sS'attempts1'
p85
I77
sS'attempts0'
p86
I71
sS'attempts9'
p87
I12
sS'attempts8'
p88
I29
ssS'test2'
p89
(dp90
S'times8'
p91
(lp92
sS'times9'
p93
(lp94
sS'times0'
p95
(lp96
F3.9125418663024902
aF2.5362467765808105
aF2.358163833618164
aF2.8310940265655518
aF2.580402135848999
aF2.36322283744812
aF2.896944999694824
aF2.680907964706421
aF2.760535955429077
aF3.0384180545806885
aF2.589493989944458
asS'times1'
p97
(lp98
F5.21039891242981
aF2.536149024963379
aF2.548398017883301
aF2.5438649654388428
aF3.7356669902801514
aF2.388115167617798
aF3.1342930793762207
aF2.7676358222961426
aF5.196351051330566
aF5.934797048568726
aF2.682889938354492
aF2.590294122695923
asS'times2'
p99
(lp100
F2.6949081420898438
aF2.3906099796295166
aF3.7713730335235596
aF2.9283430576324463
aF2.6526989936828613
asS'times3'
p101
(lp102
sS'times4'
p103
(lp104
sS'times5'
p105
(lp106
sS'times6'
p107
(lp108
sS'times7'
p109
(lp110
sS'logins'
p111
I1
sS'successes9'
p112
I0
sS'successes8'
p113
I0
sS'successes1'
p114
I12
sS'successes0'
p115
I11
sS'successes3'
p116
I0
sS'successes2'
p117
I5
sS'successes5'
p118
I0
sS'successes4'
p119
I0
sS'successes7'
p120
I0
sS'successes6'
p121
I0
sS'level'
p122
I3
sS'attempts7'
p123
I0
sS'attempts6'
p124
I0
sS'attempts5'
p125
I0
sS'attempts4'
p126
I0
sS'attempts3'
p127
I0
sS'attempts2'
p128
I5
sS'attempts1'
p129
I12
sS'attempts0'
p130
I12
sS'attempts9'
p131
I0
sS'attempts8'
p132
I0
ss.