(dp0
S'Stover'
p1
(dp2
S'times8'
p3
(lp4
sS'times9'
p5
(lp6
sS'logins'
p7
I1
sS'times1'
p8
(lp9
F2.4544119834899902
aF5.781531095504761
aF28.59639596939087
aF2.575597047805786
aF2.4184281826019287
aF2.25573992729187
aF2.7040960788726807
aF2.390099048614502
aF2.4265098571777344
aF2.5654590129852295
aF2.69991397857666
aF2.7101240158081055
aF2.58349609375
aF2.4198029041290283
aF3.023131847381592
aF2.720679998397827
aF2.753100872039795
aF3.529595136642456
aF2.590749979019165
aF2.9132840633392334
aF6.2599639892578125
aF2.6049342155456543
aF3.056617021560669
aF2.8972091674804688
aF5.740387916564941
aF3.58020281791687
aF3.0964620113372803
aF2.795177936553955
aF2.676126003265381
aF2.4856162071228027
aF2.7473058700561523
aF2.6654231548309326
aF2.479612112045288
asS'times2'
p10
(lp11
F3.0269150733947754
aF2.94541597366333
aF2.5758450031280518
aF4.114716053009033
aF2.491641044616699
aF2.72428297996521
aF2.558587074279785
aF4.120792865753174
aF2.7523059844970703
aF5.6065099239349365
aF2.8870439529418945
aF10.669389009475708
aF2.744128942489624
aF2.598594903945923
aF2.4601619243621826
aF5.095928907394409
aF2.6126668453216553
aF2.82820987701416
aF2.632606029510498
aF3.906256914138794
aF3.316732168197632
aF2.7931408882141113
aF2.849184989929199
aF2.627129077911377
asS'times3'
p12
(lp13
F2.9090921878814697
aF2.7431070804595947
aF2.5652542114257812
aF3.040593147277832
aF2.5827279090881348
aF2.7279651165008545
aF2.573369026184082
aF2.578407049179077
aF3.076464891433716
aF4.885219097137451
aF4.718026161193848
aF3.122399091720581
aF15.511215925216675
aF4.306296110153198
aF2.632305145263672
aF2.66743803024292
aF5.070052862167358
aF2.643022060394287
aF3.1285359859466553
asS'times4'
p14
(lp15
F2.4425621032714844
aF2.4197170734405518
aF3.7180819511413574
aF2.6077330112457275
aF2.7660751342773438
aF3.9681601524353027
aF3.4760079383850098
aF2.923722982406616
aF2.489163875579834
aF2.6547250747680664
aF2.66664981842041
asS'times5'
p16
(lp17
F2.550497055053711
aF2.4785280227661133
aF2.6503829956054688
aF2.5653319358825684
aF2.523236036300659
aF2.4968268871307373
aF2.513477087020874
aF2.5770881175994873
aF2.37019419670105
aF4.008543968200684
aF2.8501038551330566
asS'times6'
p18
(lp19
F3.435967206954956
aF4.883770227432251
asS'times7'
p20
(lp21
sS'successes9'
p22
I0
sS'successes8'
p23
I0
sS'successes1'
p24
I33
sS'successes0'
p25
I30
sS'successes3'
p26
I19
sS'successes2'
p27
I24
sS'successes5'
p28
I11
sS'successes4'
p29
I11
sS'successes7'
p30
I0
sS'successes6'
p31
I2
sS'level'
p32
I6
sS'attempts7'
p33
I0
sS'times0'
p34
(lp35
F4.049546003341675
aF5.347179889678955
aF3.926203966140747
aF2.632007122039795
aF2.4133810997009277
aF3.937803030014038
aF2.5539190769195557
aF3.7937519550323486
aF2.713653087615967
aF2.562937021255493
aF15.481115102767944
aF2.703266143798828
aF2.559800863265991
aF2.722670078277588
aF4.038472890853882
aF2.4107959270477295
aF2.73409104347229
aF6.224298000335693
aF4.596775770187378
aF2.8909049034118652
aF2.755300998687744
aF3.2501540184020996
aF4.384330987930298
aF2.7834041118621826
aF4.075043201446533
aF2.69176983833313
aF2.6777279376983643
aF2.9570040702819824
aF2.783747911453247
aF2.787444829940796
asS'attempts5'
p36
I11
sS'attempts4'
p37
I11
sS'attempts3'
p38
I19
sS'attempts2'
p39
I24
sS'attempts1'
p40
I33
sS'attempts0'
p41
I30
sS'attempts6'
p42
I2
sS'attempts9'
p43
I0
sS'attempts8'
p44
I0
ss.