(dp0
S'Stover'
p1
(dp2
S'times8'
p3
(lp4
F17.037894010543823
aF5.26057505607605
aF7.541862964630127
asS'times9'
p5
(lp6
F3.5825109481811523
aF2.6098580360412598
aF3.940908908843994
aF3.8053879737854004
asS'times5'
p7
(lp8
F2.597177028656006
aF2.631821870803833
aF2.452172040939331
asS'logins'
p9
I1
sS'times1'
p10
(lp11
F2.66762113571167
aF1.5053579807281494
aF2.567995071411133
aF2.601877212524414
aF2.5727901458740234
asS'times2'
p12
(lp13
F4.30177903175354
aF2.72367000579834
aF3.3448891639709473
aF2.396865129470825
aF1.481071949005127
aF3.7693870067596436
asS'times3'
p14
(lp15
F6.549094915390015
aF3.036648988723755
aF3.153533935546875
aF2.9008820056915283
asS'times4'
p16
(lp17
F2.7290890216827393
aF2.593991994857788
aF2.7530128955841064
aF2.5692272186279297
aF2.7523579597473145
aF5.352756977081299
asS'attempts5'
p18
I3
sS'times6'
p19
(lp20
F4.0803210735321045
aF2.8751611709594727
aF2.7444241046905518
aF4.974597930908203
aF1.496722936630249
asS'times7'
p21
(lp22
F5.569730997085571
aF3.8035569190979004
aF6.022385120391846
asS'attempts7'
p23
I3
sS'attempts6'
p24
I5
sS'times0'
p25
(lp26
F2.557241201400757
aF2.568253993988037
aF2.5680670738220215
aF1.4765961170196533
aF4.151001930236816
asS'attempts4'
p27
I6
sS'attempts3'
p28
I5
sS'attempts2'
p29
I6
sS'attempts1'
p30
I5
sS'attempts0'
p31
I5
sS'attempts9'
p32
I4
sS'attempts8'
p33
I3
ss.