(dp0
VStover
p1
(dp2
S'SUCCESSES9'
p3
I0
sS'SUCCESSES8'
p4
I1
sS'LOGINS'
p5
I4
sS'ATTEMPTS8'
p6
I0
sS'ATTEMPTS9'
p7
I1
sS'ATTEMPTS7'
p8
I0
sS'ATTEMPTS6'
p9
I0
sS'ATTEMPTS5'
p10
I0
sS'ATTEMPTS4'
p11
I0
sS'ATTEMPTS3'
p12
I0
sS'ATTEMPTS2'
p13
I0
sS'ATTEMPTS1'
p14
I0
sS'ATTEMPTS0'
p15
I0
sS'SUCCESSES1'
p16
I0
sS'SUCCESSES0'
p17
I0
sS'SUCCESSES3'
p18
I0
sS'SUCCESSES2'
p19
I0
sS'SUCCESSES5'
p20
I0
sS'SUCCESSES4'
p21
I0
sS'SUCCESSES7'
p22
I0
sS'SUCCESSES6'
p23
I0
ssVcarrie
p24
(dp25
S'SUCCESSES9'
p26
I0
sS'SUCCESSES8'
p27
I0
sS'LOGINS'
p28
I1
sS'ATTEMPTS8'
p29
I0
sS'ATTEMPTS9'
p30
I0
sS'ATTEMPTS7'
p31
I0
sS'ATTEMPTS6'
p32
I0
sS'ATTEMPTS5'
p33
I0
sS'ATTEMPTS4'
p34
I0
sS'ATTEMPTS3'
p35
I0
sS'ATTEMPTS2'
p36
I0
sS'ATTEMPTS1'
p37
I0
sS'ATTEMPTS0'
p38
I0
sS'SUCCESSES1'
p39
I0
sS'SUCCESSES0'
p40
I0
sS'SUCCESSES3'
p41
I0
sS'SUCCESSES2'
p42
I0
sS'SUCCESSES5'
p43
I0
sS'SUCCESSES4'
p44
I0
sS'SUCCESSES7'
p45
I0
sS'SUCCESSES6'
p46
I0
ss.